(imadanalysis.system.architecture_info
ArchitectureInfo
p0
(dp1
S'root_bin_path'
p2
S''
p3
sS'root_original_bins'
p4
(lp5
sS'fastjet_bin_path'
p6
S'/home/jaco/Documents/ML4EFT/code/MG5_aMC_v2.8.2/MG5_aMC_v2_8_2/HEPTools/madanalysis5/madanalysis5/tools/fastjet/bin'
p7
sS'delphes_lib_paths'
p8
(lp9
sS'has_delphes'
p10
I00
sS'has_root'
p11
I00
sS'root_version'
p12
g3
sS'fastjet_original_bins'
p13
(lp14
S'/home/jaco/Documents/ML4EFT/code/MG5_aMC_v2.8.2/MG5_aMC_v2_8_2/HEPTools/madanalysis5/madanalysis5/tools/fastjet/bin/fastjet-config'
p15
asS'toPATH2'
p16
(lp17
sS'python_version'
p18
S'2.7.17 |Anaconda, Inc.| (default, Oct 21 2019, 19:04:46) [GCC 7.3.0]'
p19
sS'delphes_lib'
p20
g3
sS'delphes_priority'
p21
I00
sS'gcc_version'
p22
S'7'
p23
sS'toPATH1'
p24
(lp25
S'/home/jaco/Documents/ML4EFT/code/MG5_aMC_v2.8.2/MG5_aMC_v2_8_2/HEPTools/madanalysis5/madanalysis5/tools/SampleAnalyzer/ExternalSymLink/Bin'
p26
ag7
asS'delphes_original_libs'
p27
(lp28
sS'delphesMA5tune_original_libs'
p29
(lp30
sS'fastjet_lib_paths'
p31
(lp32
S'/home/jaco/Documents/ML4EFT/code/MG5_aMC_v2.8.2/MG5_aMC_v2_8_2/HEPTools/madanalysis5/madanalysis5/tools/fastjet/lib'
p33
asS'gfortran_version'
p34
g3
sS'delphesMA5tune_lib'
p35
g3
sS'libraries'
p36
(dp37
S'ZLib'
p38
S'/home/jaco/Documents/ML4EFT/code/MG5_aMC_v2.8.2/MG5_aMC_v2_8_2/HEPTools/zlib/lib/libz.so:1604319162.43'
p39
ssS'platform'
p40
S'Linux'
p41
sS'zlib_original_libs'
p42
(lp43
S'/home/jaco/Documents/ML4EFT/code/MG5_aMC_v2.8.2/MG5_aMC_v2_8_2/HEPTools/zlib/lib/libz.so'
p44
aS'/home/jaco/Documents/ML4EFT/code/MG5_aMC_v2.8.2/MG5_aMC_v2_8_2/HEPTools/zlib/lib/libz.a'
p45
aS'/home/jaco/Documents/ML4EFT/code/MG5_aMC_v2.8.2/MG5_aMC_v2_8_2/HEPTools/zlib/lib/libz.so.1'
p46
aS'/home/jaco/Documents/ML4EFT/code/MG5_aMC_v2.8.2/MG5_aMC_v2_8_2/HEPTools/zlib/lib/libz.so.1.2.10'
p47
asS'root_inc_path'
p48
g3
sS'delphes_inc_paths'
p49
(lp50
sS'zlib_lib'
p51
g44
sS'root_priority'
p52
I00
sS'delphesMA5tune_lib_paths'
p53
(lp54
sS'root_features'
p55
(lp56
sS'has_zlib'
p57
I01
sS'zlib_inc_path'
p58
S'/home/jaco/Documents/ML4EFT/code/MG5_aMC_v2.8.2/MG5_aMC_v2_8_2/HEPTools/zlib/include'
p59
sS'zlib_lib_path'
p60
S'/home/jaco/Documents/ML4EFT/code/MG5_aMC_v2.8.2/MG5_aMC_v2_8_2/HEPTools/zlib/lib'
p61
sS'delphesMA5tune_inc_paths'
p62
(lp63
sS'has_delphesMA5tune'
p64
I00
sS'fastjet_priority'
p65
I00
sS'fastjet_version'
p66
g3
sS'root_compiler'
p67
g3
sS'ncores'
p68
I4
sS'ma5dir'
p69
S'/home/jaco/Documents/ML4EFT/code/MG5_aMC_v2.8.2/MG5_aMC_v2_8_2/HEPTools/madanalysis5/madanalysis5'
p70
sS'root_lib_path'
p71
g3
sS'delphesMA5tune_priority'
p72
I00
sS'headers'
p73
(dp74
sS'toLDPATH2'
p75
(lp76
sS'toLDPATH1'
p77
(lp78
S'/home/jaco/Documents/ML4EFT/code/MG5_aMC_v2.8.2/MG5_aMC_v2_8_2/HEPTools/madanalysis5/madanalysis5/tools/SampleAnalyzer/Lib'
p79
aS'/home/jaco/Documents/ML4EFT/code/MG5_aMC_v2.8.2/MG5_aMC_v2_8_2/HEPTools/madanalysis5/madanalysis5/tools/SampleAnalyzer/ExternalSymLink/Lib'
p80
ag33
asS'zlib_priority'
p81
I01
sS'ma5_date'
p82
S'2020/05/01'
p83
sS'make_version'
p84
S'GNU Make 4.1'
p85
sS'ma5_version'
p86
S'1.8.45'
p87
sS'has_fastjet'
p88
I01
sS'release'
p89
S'5.4.0-52-generic'
p90
sS'isMac'
p91
I00
sS'compilation_severity'
p92
I0
sb.